target datalayout = "e-m:e-p270:32:32-p271:32:32-p272:64:64-i64:64-i128:128-f80:128-n8:16:32:64-S128"
target triple = "x86_64-pc-linux-gnu"

%struct.RBasic = type { i64, i64 }
%struct.RArray = type { %struct.RBasic, %union.anon }
%union.anon = type { %struct.anon }
%struct.anon = type { i64, %union.anon.0, ptr }
%union.anon.0 = type { i64 }

; Function Attrs: inlinehint nounwind sspstrong willreturn memory(read) uwtable
define internal i64 @RB_FL_TEST_RAW(i64 noundef %0, i64 noundef %1) #2 {
  %3 = alloca i64, align 8
  %4 = alloca i64, align 8
  store i64 %0, ptr %3, align 8, !tbaa !7
  store i64 %1, ptr %4, align 8, !tbaa !7
  %5 = load i64, ptr %3, align 8, !tbaa !7
  %6 = inttoptr i64 %5 to ptr
  %7 = getelementptr inbounds nuw %struct.RBasic, ptr %6, i32 0, i32 0
  %8 = load i64, ptr %7, align 8, !tbaa !11
  %9 = load i64, ptr %4, align 8, !tbaa !7
  %10 = and i64 %8, %9
  ret i64 %10
}

; Function Attrs: inlinehint nounwind sspstrong willreturn memory(read) uwtable
define internal ptr @rb_array_const_ptr(i64 noundef %0) #2 {
  %2 = alloca ptr, align 8
  %3 = alloca i64, align 8
  store i64 %0, ptr %3, align 8, !tbaa !7
  %4 = load i64, ptr %3, align 8, !tbaa !7
  %5 = call zeroext i1 @RB_FL_ANY_RAW(i64 noundef %4, i64 noundef 8192) #26
  br i1 %5, label %6, label %11

6:                                                ; preds = %1
  %7 = load i64, ptr %3, align 8, !tbaa !7
  %8 = inttoptr i64 %7 to ptr
  %9 = getelementptr inbounds nuw %struct.RArray, ptr %8, i32 0, i32 1
  %10 = getelementptr inbounds [1 x i64], ptr %9, i64 0, i64 0
  store ptr %10, ptr %2, align 8
  br label %17

11:                                               ; preds = %1
  %12 = load i64, ptr %3, align 8, !tbaa !7
  %13 = inttoptr i64 %12 to ptr
  %14 = getelementptr inbounds nuw %struct.RArray, ptr %13, i32 0, i32 1
  %15 = getelementptr inbounds nuw %struct.anon, ptr %14, i32 0, i32 2
  %16 = load ptr, ptr %15, align 8, !tbaa !13
  store ptr %16, ptr %2, align 8
  br label %17

17:                                               ; preds = %11, %6
  %18 = load ptr, ptr %2, align 8
  ret ptr %18
}

; Function Attrs: inlinehint nounwind sspstrong willreturn memory(read) uwtable
define internal i64 @RARRAY_EMBED_LEN(i64 noundef %0) #2 {
  %2 = alloca i64, align 8
  %3 = alloca i64, align 8
  store i64 %0, ptr %2, align 8, !tbaa !7
  call void @llvm.lifetime.start.p0(i64 8, ptr %3) #27
  %4 = load i64, ptr %2, align 8, !tbaa !7
  %5 = inttoptr i64 %4 to ptr
  %6 = getelementptr inbounds nuw %struct.RBasic, ptr %5, i32 0, i32 0
  %7 = load i64, ptr %6, align 8, !tbaa !11
  store i64 %7, ptr %3, align 8, !tbaa !7
  %8 = load i64, ptr %3, align 8, !tbaa !7
  %9 = and i64 %8, 4161536
  store i64 %9, ptr %3, align 8, !tbaa !7
  %10 = load i64, ptr %3, align 8, !tbaa !7
  %11 = lshr i64 %10, 15
  store i64 %11, ptr %3, align 8, !tbaa !7
  %12 = load i64, ptr %3, align 8, !tbaa !7
  call void @llvm.lifetime.end.p0(i64 8, ptr %3) #27
  ret i64 %12
}

; Function Attrs: inlinehint nounwind sspstrong willreturn memory(read) uwtable
define internal zeroext i1 @RB_FL_ANY_RAW(i64 noundef %0, i64 noundef %1) #2 {
  %3 = alloca i64, align 8
  %4 = alloca i64, align 8
  store i64 %0, ptr %3, align 8, !tbaa !7
  store i64 %1, ptr %4, align 8, !tbaa !7
  %5 = load i64, ptr %3, align 8, !tbaa !7
  %6 = load i64, ptr %4, align 8, !tbaa !7
  %7 = call i64 @RB_FL_TEST_RAW(i64 noundef %5, i64 noundef %6) #26
  %8 = icmp ne i64 %7, 0
  ret i1 %8
}

; Function Attrs: inlinehint nounwind sspstrong willreturn memory(read) uwtable
define internal i64 @RARRAY_AREF(i64 noundef %0, i64 noundef %1) #2 {
  %3 = alloca i64, align 8
  %4 = alloca i64, align 8
  %5 = alloca i64, align 8
  store i64 %0, ptr %3, align 8, !tbaa !7
  store i64 %1, ptr %4, align 8, !tbaa !7
  call void @llvm.lifetime.start.p0(i64 8, ptr %5) #27
  %6 = load i64, ptr %3, align 8, !tbaa !7
  %7 = call ptr @rb_array_const_ptr(i64 noundef %6) #26
  %8 = load i64, ptr %4, align 8, !tbaa !7
  %9 = getelementptr i64, ptr %7, i64 %8
  %10 = load i64, ptr %9, align 8, !tbaa !7
  store i64 %10, ptr %5, align 8, !tbaa !7
  %11 = load i64, ptr %5, align 8, !tbaa !7
  call void @llvm.lifetime.end.p0(i64 8, ptr %5) #27
  ret i64 %11
}

; Function Attrs: inlinehint nounwind sspstrong willreturn memory(read) uwtable
define internal i64 @rb_array_len(i64 noundef %0) #2 {
  %2 = alloca i64, align 8
  %3 = alloca i64, align 8
  store i64 %0, ptr %3, align 8, !tbaa !7
  %4 = load i64, ptr %3, align 8, !tbaa !7
  %5 = call zeroext i1 @RB_FL_ANY_RAW(i64 noundef %4, i64 noundef 8192) #26
  br i1 %5, label %6, label %9

6:                                                ; preds = %1
  %7 = load i64, ptr %3, align 8, !tbaa !7
  %8 = call i64 @RARRAY_EMBED_LEN(i64 noundef %7) #26
  store i64 %8, ptr %2, align 8
  br label %15

9:                                                ; preds = %1
  %10 = load i64, ptr %3, align 8, !tbaa !7
  %11 = inttoptr i64 %10 to ptr
  %12 = getelementptr inbounds nuw %struct.RArray, ptr %11, i32 0, i32 1
  %13 = getelementptr inbounds nuw %struct.anon, ptr %12, i32 0, i32 0
  %14 = load i64, ptr %13, align 8, !tbaa !13
  store i64 %14, ptr %2, align 8
  br label %15

15:                                               ; preds = %9, %6
  %16 = load i64, ptr %2, align 8
  ret i64 %16
}

; Function Attrs: nounwind sspstrong uwtable
define dso_local i64 @rb_ary_delete(i64 noundef %0, i64 noundef %1) #0 {
  %3 = alloca i64, align 8
  %4 = alloca i64, align 8
  %5 = alloca i64, align 8
  %6 = alloca i64, align 8
  %7 = alloca i64, align 8
  %8 = alloca i64, align 8
  %9 = alloca i64, align 8
  %10 = alloca i32, align 4
  store i64 %0, ptr %4, align 8, !tbaa !7
  store i64 %1, ptr %5, align 8, !tbaa !7
  call void @llvm.lifetime.start.p0(i64 8, ptr %6) #27
  %11 = load i64, ptr %5, align 8, !tbaa !7
  store i64 %11, ptr %6, align 8, !tbaa !7
  call void @llvm.lifetime.start.p0(i64 8, ptr %7) #27
  call void @llvm.lifetime.start.p0(i64 8, ptr %8) #27
  store i64 0, ptr %8, align 8, !tbaa !7
  store i64 0, ptr %7, align 8, !tbaa !7
  br label %12

12:                                               ; preds = %41, %2
  %13 = load i64, ptr %7, align 8, !tbaa !7
  %14 = load i64, ptr %4, align 8, !tbaa !7
  %15 = call i64 @rb_array_len(i64 noundef %14) #26
  %16 = icmp slt i64 %13, %15
  br i1 %16, label %17, label %44

17:                                               ; preds = %12
  call void @llvm.lifetime.start.p0(i64 8, ptr %9) #27
  %18 = load i64, ptr %4, align 8, !tbaa !7
  %19 = load i64, ptr %7, align 8, !tbaa !7
  %20 = call i64 @RARRAY_AREF(i64 noundef %18, i64 noundef %19) #26
  store i64 %20, ptr %9, align 8, !tbaa !7
  %21 = load i64, ptr %9, align 8, !tbaa !7
  %22 = load i64, ptr %5, align 8, !tbaa !7
  %23 = call i64 @rb_equal(i64 noundef %21, i64 noundef %22)
  %24 = icmp ne i64 %23, 0
  br i1 %24, label %25, label %27

25:                                               ; preds = %17
  %26 = load i64, ptr %9, align 8, !tbaa !7
  store i64 %26, ptr %6, align 8, !tbaa !7
  store i32 4, ptr %10, align 4
  br label %38

27:                                               ; preds = %17
  %28 = load i64, ptr %7, align 8, !tbaa !7
  %29 = load i64, ptr %8, align 8, !tbaa !7
  %30 = icmp ne i64 %28, %29
  br i1 %30, label %31, label %35

31:                                               ; preds = %27
  %32 = load i64, ptr %4, align 8, !tbaa !7
  %33 = load i64, ptr %8, align 8, !tbaa !7
  %34 = load i64, ptr %9, align 8, !tbaa !7
  call void @rb_ary_store(i64 noundef %32, i64 noundef %33, i64 noundef %34)
  br label %35

35:                                               ; preds = %31, %27
  %36 = load i64, ptr %8, align 8, !tbaa !7
  %37 = add i64 %36, 1
  store i64 %37, ptr %8, align 8, !tbaa !7
  store i32 0, ptr %10, align 4
  br label %38

38:                                               ; preds = %35, %25
  call void @llvm.lifetime.end.p0(i64 8, ptr %9) #27
  %39 = load i32, ptr %10, align 4
  switch i32 %39, label %62 [
    i32 0, label %40
    i32 4, label %41
  ]

40:                                               ; preds = %38
  br label %41

41:                                               ; preds = %40, %38
  %42 = load i64, ptr %7, align 8, !tbaa !7
  %43 = add i64 %42, 1
  store i64 %43, ptr %7, align 8, !tbaa !7
  br label %12, !llvm.loop !65

44:                                               ; preds = %12
  %45 = load i64, ptr %4, align 8, !tbaa !7
  %46 = call i64 @rb_array_len(i64 noundef %45) #26
  %47 = load i64, ptr %8, align 8, !tbaa !7
  %48 = icmp eq i64 %46, %47
  br i1 %48, label %49, label %56

49:                                               ; preds = %44
  %50 = call i32 @rb_block_given_p()
  %51 = icmp ne i32 %50, 0
  br i1 %51, label %52, label %55

52:                                               ; preds = %49
  %53 = load i64, ptr %5, align 8, !tbaa !7
  %54 = call i64 @rb_yield(i64 noundef %53)
  store i64 %54, ptr %3, align 8
  store i32 1, ptr %10, align 4
  br label %60

55:                                               ; preds = %49
  store i64 4, ptr %3, align 8
  store i32 1, ptr %10, align 4
  br label %60

56:                                               ; preds = %44
  %57 = load i64, ptr %4, align 8, !tbaa !7
  %58 = load i64, ptr %8, align 8, !tbaa !7
  call void @ary_resize_smaller(i64 noundef %57, i64 noundef %58)
  %59 = load i64, ptr %6, align 8, !tbaa !7
  store i64 %59, ptr %3, align 8
  store i32 1, ptr %10, align 4
  br label %60

60:                                               ; preds = %56, %55, %52
  call void @llvm.lifetime.end.p0(i64 8, ptr %8) #27
  call void @llvm.lifetime.end.p0(i64 8, ptr %7) #27
  call void @llvm.lifetime.end.p0(i64 8, ptr %6) #27
  %61 = load i64, ptr %3, align 8
  ret i64 %61

62:                                               ; preds = %38
  unreachable
}