; Function Attrs: nounwind sspstrong uwtable
define dso_local i64 @rb_ary_delete(i64 noundef %0, i64 noundef %1) #4 {
  %3 = inttoptr i64 %0 to ptr
  %4 = getelementptr inbounds nuw i8, ptr %3, i64 16
  %5 = getelementptr inbounds nuw i8, ptr %3, i64 32
  br label %6

6:                                                ; preds = %23, %2
  %.024 = phi i64 [ %1, %2 ], [ %.125, %23 ]
  %.023 = phi i64 [ 0, %2 ], [ %24, %23 ]
  %.022 = phi i64 [ 0, %2 ], [ %.1, %23 ]
  %7 = load i64, ptr %3, align 8, !tbaa !7
  %8 = and i64 %7, 8192
  %.not.i = icmp eq i64 %8, 0
  br i1 %.not.i, label %rb_array_len.exit, label %rb_array_len.exit.thread

rb_array_len.exit:                                ; preds = %6
  %9 = load i64, ptr %4, align 8, !tbaa !12
  %10 = icmp slt i64 %.023, %9
  br i1 %10, label %14, label %25

rb_array_len.exit.thread:                         ; preds = %6
  %11 = lshr i64 %7, 15
  %12 = and i64 %11, 127
  %13 = icmp samesign ult i64 %.023, %12
  br i1 %13, label %RARRAY_AREF.exit, label %25

14:                                               ; preds = %rb_array_len.exit
  %15 = load ptr, ptr %5, align 8, !tbaa !12
  br label %RARRAY_AREF.exit

RARRAY_AREF.exit:                                 ; preds = %rb_array_len.exit.thread, %14
  %.0.i.i = phi ptr [ %15, %14 ], [ %4, %rb_array_len.exit.thread ]
  %16 = getelementptr i64, ptr %.0.i.i, i64 %.023
  %17 = load i64, ptr %16, align 8, !tbaa !13
  %18 = tail call i64 @rb_equal(i64 noundef %17, i64 noundef %1) #24
  %.not27 = icmp eq i64 %18, 0
  br i1 %.not27, label %19, label %23

19:                                               ; preds = %RARRAY_AREF.exit
  %.not28 = icmp eq i64 %.023, %.022
  br i1 %.not28, label %21, label %20

20:                                               ; preds = %19
  tail call void @rb_ary_store(i64 noundef %0, i64 noundef %.022, i64 noundef %17)
  br label %21

21:                                               ; preds = %20, %19
  %22 = add i64 %.022, 1
  br label %23

23:                                               ; preds = %RARRAY_AREF.exit, %21
  %.125 = phi i64 [ %.024, %21 ], [ %17, %RARRAY_AREF.exit ]
  %.1 = phi i64 [ %22, %21 ], [ %.022, %RARRAY_AREF.exit ]
  %24 = add nuw nsw i64 %.023, 1
  br label %6, !llvm.loop !55

25:                                               ; preds = %rb_array_len.exit.thread, %rb_array_len.exit
  %.0.i30 = phi i64 [ %12, %rb_array_len.exit.thread ], [ %9, %rb_array_len.exit ]
  %26 = icmp eq i64 %.0.i30, %.022
  br i1 %26, label %27, label %31

27:                                               ; preds = %25
  %28 = tail call i32 @rb_block_given_p() #24
  %.not = icmp eq i32 %28, 0
  br i1 %.not, label %32, label %29

29:                                               ; preds = %27
  %30 = tail call i64 @rb_yield(i64 noundef %1) #24
  br label %32

31:                                               ; preds = %25
  tail call fastcc void @ary_resize_smaller(i64 noundef %0, i64 noundef %.022)
  br label %32

32:                                               ; preds = %27, %31, %29
  %.0 = phi i64 [ %30, %29 ], [ %.024, %31 ], [ 4, %27 ]
  ret i64 %.0
}